target datalayout = "e-m:e-p270:32:32-p271:32:32-p272:64:64-i64:64-i128:128-f80:128-n8:16:32:64-S128"
target triple = "x86_64-pc-linux-gnu"

@hf_afp_pad = internal global i32 0, align 4
@hf_afp_vol_id = internal global i32 0, align 4
@hf_afp_did = internal global i32 0, align 4
@hf_afp_dir_bitmap = internal global i32 0, align 4
@ett_afp_dir_bitmap = internal global i32 0, align 4
@Vol = internal global i32 0, align 4
@Did = internal global i32 0, align 4
@.str.1065 = private unnamed_addr constant [9 x i8] c"Path: %s\00", align 1

; Function Attrs: null_pointer_is_valid sspstrong uwtable
define internal i32 @decode_name(ptr noundef %0, ptr noundef %1, ptr noundef %2, i32 noundef %3) #1 {
  %5 = alloca ptr, align 8
  %6 = alloca ptr, align 8
  %7 = alloca ptr, align 8
  %8 = alloca i32, align 4
  store ptr %0, ptr %5, align 8
  store ptr %1, ptr %6, align 8
  store ptr %2, ptr %7, align 8
  store i32 %3, ptr %8, align 4
  %9 = load ptr, ptr %5, align 8
  %10 = load ptr, ptr %6, align 8
  %11 = load ptr, ptr %7, align 8
  %12 = load i32, ptr %8, align 4
  %13 = call i32 @decode_name_label(ptr noundef %9, ptr noundef %10, ptr noundef %11, i32 noundef %12, ptr noundef @.str.1065, i1 noundef zeroext true)
  ret i32 %13
}

; Function Attrs: null_pointer_is_valid sspstrong uwtable
define internal zeroext i16 @decode_dir_bitmap(ptr noundef %0, ptr noundef %1, i32 noundef %2) #1 {
  %4 = alloca ptr, align 8
  %5 = alloca ptr, align 8
  %6 = alloca i32, align 4
  %7 = alloca i16, align 2
  store ptr %0, ptr %4, align 8
  store ptr %1, ptr %5, align 8
  store i32 %2, ptr %6, align 4
  call void @llvm.lifetime.start.p0(i64 2, ptr %7) #8
  %8 = load ptr, ptr %4, align 8
  %9 = load ptr, ptr %5, align 8
  %10 = load i32, ptr %6, align 4
  %11 = load i32, ptr @hf_afp_dir_bitmap, align 4
  %12 = load i32, ptr @ett_afp_dir_bitmap, align 4
  %13 = call ptr @proto_tree_add_bitmask(ptr noundef %8, ptr noundef %9, i32 noundef %10, i32 noundef %11, i32 noundef %12, ptr noundef @decode_dir_bitmap.bitmaps, i32 noundef 0)
  %14 = load ptr, ptr %5, align 8
  %15 = load i32, ptr %6, align 4
  %16 = call zeroext i16 @tvb_get_ntohs(ptr noundef %14, i32 noundef %15)
  store i16 %16, ptr %7, align 2
  %17 = load i16, ptr %7, align 2
  call void @llvm.lifetime.end.p0(i64 2, ptr %7) #8
  ret i16 %17
}

; Function Attrs: null_pointer_is_valid sspstrong uwtable
define internal i32 @decode_vol_did(ptr noundef %0, ptr noundef %1, i32 noundef %2) #1 {
  %4 = alloca ptr, align 8
  %5 = alloca ptr, align 8
  %6 = alloca i32, align 4
  store ptr %0, ptr %4, align 8
  store ptr %1, ptr %5, align 8
  store i32 %2, ptr %6, align 4
  %7 = load ptr, ptr %5, align 8
  %8 = load i32, ptr %6, align 4
  %9 = call zeroext i16 @tvb_get_ntohs(ptr noundef %7, i32 noundef %8)
  %10 = zext i16 %9 to i32
  store i32 %10, ptr @Vol, align 4
  %11 = load ptr, ptr %4, align 8
  %12 = load i32, ptr @hf_afp_vol_id, align 4
  %13 = load ptr, ptr %5, align 8
  %14 = load i32, ptr %6, align 4
  %15 = call ptr @proto_tree_add_item(ptr noundef %11, i32 noundef %12, ptr noundef %13, i32 noundef %14, i32 noundef 2, i32 noundef 0)
  %16 = load i32, ptr %6, align 4
  %17 = add i32 %16, 2
  store i32 %17, ptr %6, align 4
  %18 = load ptr, ptr %5, align 8
  %19 = load i32, ptr %6, align 4
  %20 = call i32 @tvb_get_ntohl(ptr noundef %18, i32 noundef %19)
  store i32 %20, ptr @Did, align 4
  %21 = load ptr, ptr %4, align 8
  %22 = load i32, ptr @hf_afp_did, align 4
  %23 = load ptr, ptr %5, align 8
  %24 = load i32, ptr %6, align 4
  %25 = call ptr @proto_tree_add_item(ptr noundef %21, i32 noundef %22, ptr noundef %23, i32 noundef %24, i32 noundef 4, i32 noundef 0)
  %26 = load i32, ptr %6, align 4
  %27 = add i32 %26, 4
  store i32 %27, ptr %6, align 4
  %28 = load i32, ptr %6, align 4
  ret i32 %28
}

; Function Attrs: null_pointer_is_valid sspstrong uwtable
define internal i32 @dissect_query_afp_set_dir_param(ptr noundef %0, ptr noundef %1, ptr noundef %2, i32 noundef %3) #1 {
  %5 = alloca ptr, align 8
  %6 = alloca ptr, align 8
  %7 = alloca ptr, align 8
  %8 = alloca i32, align 4
  %9 = alloca i16, align 2
  store ptr %0, ptr %5, align 8
  store ptr %1, ptr %6, align 8
  store ptr %2, ptr %7, align 8
  store i32 %3, ptr %8, align 4
  call void @llvm.lifetime.start.p0(i64 2, ptr %9) #8
  %10 = load ptr, ptr %7, align 8
  %11 = load i32, ptr @hf_afp_pad, align 4
  %12 = load ptr, ptr %5, align 8
  %13 = load i32, ptr %8, align 4
  %14 = call ptr @proto_tree_add_item(ptr noundef %10, i32 noundef %11, ptr noundef %12, i32 noundef %13, i32 noundef 1, i32 noundef 0)
  %15 = load i32, ptr %8, align 4
  %16 = add i32 %15, 1
  store i32 %16, ptr %8, align 4
  %17 = load ptr, ptr %7, align 8
  %18 = load ptr, ptr %5, align 8
  %19 = load i32, ptr %8, align 4
  %20 = call i32 @decode_vol_did(ptr noundef %17, ptr noundef %18, i32 noundef %19)
  store i32 %20, ptr %8, align 4
  %21 = load ptr, ptr %7, align 8
  %22 = load ptr, ptr %5, align 8
  %23 = load i32, ptr %8, align 4
  %24 = call zeroext i16 @decode_dir_bitmap(ptr noundef %21, ptr noundef %22, i32 noundef %23)
  store i16 %24, ptr %9, align 2
  %25 = load i32, ptr %8, align 4
  %26 = add i32 %25, 2
  store i32 %26, ptr %8, align 4
  %27 = load ptr, ptr %7, align 8
  %28 = load ptr, ptr %6, align 8
  %29 = load ptr, ptr %5, align 8
  %30 = load i32, ptr %8, align 4
  %31 = call i32 @decode_name(ptr noundef %27, ptr noundef %28, ptr noundef %29, i32 noundef %30)
  store i32 %31, ptr %8, align 4
  %32 = load i32, ptr %8, align 4
  %33 = and i32 %32, 1
  %34 = icmp ne i32 %33, 0
  br i1 %34, label %35, label %43

35:                                               ; preds = %4
  %36 = load ptr, ptr %7, align 8
  %37 = load i32, ptr @hf_afp_pad, align 4
  %38 = load ptr, ptr %5, align 8
  %39 = load i32, ptr %8, align 4
  %40 = call ptr @proto_tree_add_item(ptr noundef %36, i32 noundef %37, ptr noundef %38, i32 noundef %39, i32 noundef 1, i32 noundef 0)
  %41 = load i32, ptr %8, align 4
  %42 = add i32 %41, 1
  store i32 %42, ptr %8, align 4
  br label %43

43:                                               ; preds = %35, %4
  %44 = load ptr, ptr %7, align 8
  %45 = load ptr, ptr %5, align 8
  %46 = load i32, ptr %8, align 4
  %47 = load i16, ptr %9, align 2
  %48 = call i32 @parse_dir_bitmap(ptr noundef %44, ptr noundef %45, i32 noundef %46, i16 noundef zeroext %47)
  store i32 %48, ptr %8, align 4
  %49 = load i32, ptr %8, align 4
  %50 = add i32 %49, 4
  store i32 %50, ptr %8, align 4
  %51 = load i32, ptr %8, align 4
  call void @llvm.lifetime.end.p0(i64 2, ptr %9) #8
  ret i32 %51
}